target datalayout = "e-m:e-p270:32:32-p271:32:32-p272:64:64-i64:64-i128:128-f80:128-n8:16:32:64-S128"
target triple = "x86_64-pc-linux-gnu"

%struct.Lexer = type { ptr, ptr, ptr, ptr, i32, i32, ptr, ptr, ptr, %struct.TokenData, %union.SourceSpan, i32, i32 }
%struct.TokenData = type { ptr, i64, %union.anon.86 }
%union.anon.86 = type { %struct.anon.89 }
%struct.anon.89 = type { %struct.Int128_, i8 }
%struct.Int128_ = type { i64, i64 }
%union.SourceSpan = type { i64 }

@.str.108 = private unnamed_addr constant [52 x i8] c"End of file was reached while parsing the exponent.\00", align 1
@.str.109 = private unnamed_addr constant [52 x i8] c"End of line was reached while parsing the exponent.\00", align 1
@.str.110 = private unnamed_addr constant [62 x i8] c"An unexpected character was found while parsing the exponent.\00", align 1
@.str.111 = private unnamed_addr constant [74 x i8] c"Parsing the floating point exponent failed, because '%c' is not a number.\00", align 1

; Function Attrs: nounwind uwtable
define internal void @backtrack(ptr noundef %0) #0 {
  %2 = alloca ptr, align 8
  store ptr %0, ptr %2, align 8
  %3 = load ptr, ptr %2, align 8
  %4 = getelementptr inbounds %struct.Lexer, ptr %3, i32 0, i32 3
  %5 = load ptr, ptr %4, align 8
  %6 = getelementptr inbounds i8, ptr %5, i32 -1
  store ptr %6, ptr %4, align 8
  %7 = load ptr, ptr %2, align 8
  %8 = getelementptr inbounds %struct.Lexer, ptr %7, i32 0, i32 3
  %9 = load ptr, ptr %8, align 8
  %10 = getelementptr inbounds i8, ptr %9, i64 0
  %11 = load i8, ptr %10, align 1
  %12 = sext i8 %11 to i32
  %13 = icmp eq i32 %12, 10
  br i1 %13, label %14, label %19

14:                                               ; preds = %1
  %15 = load ptr, ptr %2, align 8
  %16 = getelementptr inbounds %struct.Lexer, ptr %15, i32 0, i32 4
  %17 = load i32, ptr %16, align 8
  %18 = add i32 %17, -1
  store i32 %18, ptr %16, align 8
  br label %19

19:                                               ; preds = %14, %1
  ret void
}

; Function Attrs: nounwind uwtable
define internal zeroext i1 @char_is_digit(i8 noundef signext %0) #0 {
  %2 = alloca i8, align 1
  store i8 %0, ptr %2, align 1
  %3 = load i8, ptr %2, align 1
  %4 = sext i8 %3 to i32
  %5 = icmp sge i32 %4, 48
  br i1 %5, label %6, label %10

6:                                                ; preds = %1
  %7 = load i8, ptr %2, align 1
  %8 = sext i8 %7 to i32
  %9 = icmp sle i32 %8, 57
  br label %10

10:                                               ; preds = %6, %1
  %11 = phi i1 [ false, %1 ], [ %9, %6 ]
  ret i1 %11
}

; Function Attrs: nounwind uwtable
define internal zeroext i1 @scan_exponent(ptr noundef %0) #0 {
  %2 = alloca ptr, align 8
  %3 = alloca ptr, align 8
  %4 = alloca ptr, align 8
  %5 = alloca ptr, align 8
  %6 = alloca i1, align 1
  %7 = alloca ptr, align 8
  %8 = alloca i8, align 1
  store ptr %0, ptr %7, align 8
  %9 = load ptr, ptr %7, align 8
  store ptr %9, ptr %2, align 8
  %10 = load ptr, ptr %2, align 8
  %11 = getelementptr inbounds %struct.Lexer, ptr %10, i32 0, i32 3
  %12 = load ptr, ptr %11, align 8
  %13 = load i8, ptr %12, align 1
  %14 = sext i8 %13 to i32
  %15 = icmp eq i32 %14, 10
  br i1 %15, label %16, label %27

16:                                               ; preds = %1
  %17 = load ptr, ptr %2, align 8
  %18 = getelementptr inbounds %struct.Lexer, ptr %17, i32 0, i32 3
  %19 = load ptr, ptr %18, align 8
  %20 = getelementptr inbounds i8, ptr %19, i64 1
  %21 = load ptr, ptr %2, align 8
  %22 = getelementptr inbounds %struct.Lexer, ptr %21, i32 0, i32 6
  store ptr %20, ptr %22, align 8
  %23 = load ptr, ptr %2, align 8
  %24 = getelementptr inbounds %struct.Lexer, ptr %23, i32 0, i32 4
  %25 = load i32, ptr %24, align 8
  %26 = add i32 %25, 1
  store i32 %26, ptr %24, align 8
  br label %27

27:                                               ; preds = %16, %1
  %28 = load ptr, ptr %2, align 8
  %29 = getelementptr inbounds %struct.Lexer, ptr %28, i32 0, i32 3
  %30 = load ptr, ptr %29, align 8
  %31 = getelementptr inbounds i8, ptr %30, i32 1
  store ptr %31, ptr %29, align 8
  %32 = load ptr, ptr %7, align 8
  %33 = getelementptr inbounds %struct.Lexer, ptr %32, i32 0, i32 3
  %34 = load ptr, ptr %33, align 8
  %35 = load i8, ptr %34, align 1
  store i8 %35, ptr %8, align 1
  %36 = load ptr, ptr %7, align 8
  store ptr %36, ptr %3, align 8
  %37 = load ptr, ptr %3, align 8
  %38 = getelementptr inbounds %struct.Lexer, ptr %37, i32 0, i32 3
  %39 = load ptr, ptr %38, align 8
  %40 = load i8, ptr %39, align 1
  %41 = sext i8 %40 to i32
  %42 = icmp eq i32 %41, 10
  br i1 %42, label %43, label %54

43:                                               ; preds = %27
  %44 = load ptr, ptr %3, align 8
  %45 = getelementptr inbounds %struct.Lexer, ptr %44, i32 0, i32 3
  %46 = load ptr, ptr %45, align 8
  %47 = getelementptr inbounds i8, ptr %46, i64 1
  %48 = load ptr, ptr %3, align 8
  %49 = getelementptr inbounds %struct.Lexer, ptr %48, i32 0, i32 6
  store ptr %47, ptr %49, align 8
  %50 = load ptr, ptr %3, align 8
  %51 = getelementptr inbounds %struct.Lexer, ptr %50, i32 0, i32 4
  %52 = load i32, ptr %51, align 8
  %53 = add i32 %52, 1
  store i32 %53, ptr %51, align 8
  br label %54

54:                                               ; preds = %43, %27
  %55 = load ptr, ptr %3, align 8
  %56 = getelementptr inbounds %struct.Lexer, ptr %55, i32 0, i32 3
  %57 = load ptr, ptr %56, align 8
  %58 = getelementptr inbounds i8, ptr %57, i32 1
  store ptr %58, ptr %56, align 8
  %59 = load i8, ptr %8, align 1
  %60 = sext i8 %59 to i32
  %61 = icmp eq i32 %60, 43
  br i1 %61, label %66, label %62

62:                                               ; preds = %54
  %63 = load i8, ptr %8, align 1
  %64 = sext i8 %63 to i32
  %65 = icmp eq i32 %64, 45
  br i1 %65, label %66, label %94

66:                                               ; preds = %62, %54
  %67 = load ptr, ptr %7, align 8
  %68 = getelementptr inbounds %struct.Lexer, ptr %67, i32 0, i32 3
  %69 = load ptr, ptr %68, align 8
  %70 = load i8, ptr %69, align 1
  store i8 %70, ptr %8, align 1
  %71 = load ptr, ptr %7, align 8
  store ptr %71, ptr %4, align 8
  %72 = load ptr, ptr %4, align 8
  %73 = getelementptr inbounds %struct.Lexer, ptr %72, i32 0, i32 3
  %74 = load ptr, ptr %73, align 8
  %75 = load i8, ptr %74, align 1
  %76 = sext i8 %75 to i32
  %77 = icmp eq i32 %76, 10
  br i1 %77, label %78, label %89

78:                                               ; preds = %66
  %79 = load ptr, ptr %4, align 8
  %80 = getelementptr inbounds %struct.Lexer, ptr %79, i32 0, i32 3
  %81 = load ptr, ptr %80, align 8
  %82 = getelementptr inbounds i8, ptr %81, i64 1
  %83 = load ptr, ptr %4, align 8
  %84 = getelementptr inbounds %struct.Lexer, ptr %83, i32 0, i32 6
  store ptr %82, ptr %84, align 8
  %85 = load ptr, ptr %4, align 8
  %86 = getelementptr inbounds %struct.Lexer, ptr %85, i32 0, i32 4
  %87 = load i32, ptr %86, align 8
  %88 = add i32 %87, 1
  store i32 %88, ptr %86, align 8
  br label %89

89:                                               ; preds = %78, %66
  %90 = load ptr, ptr %4, align 8
  %91 = getelementptr inbounds %struct.Lexer, ptr %90, i32 0, i32 3
  %92 = load ptr, ptr %91, align 8
  %93 = getelementptr inbounds i8, ptr %92, i32 1
  store ptr %93, ptr %91, align 8
  br label %94

94:                                               ; preds = %89, %62
  %95 = load i8, ptr %8, align 1
  %96 = call zeroext i1 @char_is_digit(i8 noundef signext %95)
  br i1 %96, label %128, label %97

97:                                               ; preds = %94
  %98 = load i8, ptr %8, align 1
  %99 = sext i8 %98 to i32
  %100 = icmp eq i32 %99, 0
  br i1 %100, label %101, label %105

101:                                              ; preds = %97
  %102 = load ptr, ptr %7, align 8
  call void @backtrack(ptr noundef %102)
  %103 = load ptr, ptr %7, align 8
  %104 = call zeroext i1 (ptr, ptr, ...) @add_error_token_at_current(ptr noundef %103, ptr noundef @.str.108)
  store i1 %104, ptr %6, align 1
  br label %160

105:                                              ; preds = %97
  %106 = load i8, ptr %8, align 1
  %107 = sext i8 %106 to i32
  %108 = icmp eq i32 %107, 10
  br i1 %108, label %109, label %112

109:                                              ; preds = %105
  %110 = load ptr, ptr %7, align 8
  %111 = call zeroext i1 (ptr, ptr, ...) @add_error_token(ptr noundef %110, ptr noundef @.str.109)
  store i1 %111, ptr %6, align 1
  br label %160

112:                                              ; preds = %105
  %113 = load i8, ptr %8, align 1
  %114 = sext i8 %113 to i32
  %115 = icmp slt i32 %114, 31
  br i1 %115, label %120, label %116

116:                                              ; preds = %112
  %117 = load i8, ptr %8, align 1
  %118 = sext i8 %117 to i32
  %119 = icmp sgt i32 %118, 127
  br i1 %119, label %120, label %123

120:                                              ; preds = %116, %112
  %121 = load ptr, ptr %7, align 8
  %122 = call zeroext i1 (ptr, ptr, ...) @add_error_token(ptr noundef %121, ptr noundef @.str.110)
  br label %123

123:                                              ; preds = %120, %116
  %124 = load ptr, ptr %7, align 8
  %125 = load i8, ptr %8, align 1
  %126 = sext i8 %125 to i32
  %127 = call zeroext i1 (ptr, ptr, ...) @add_error_token(ptr noundef %124, ptr noundef @.str.111, i32 noundef %126)
  store i1 %127, ptr %6, align 1
  br label %160

128:                                              ; preds = %94
  br label %129

129:                                              ; preds = %154, %128
  %130 = load ptr, ptr %7, align 8
  %131 = getelementptr inbounds %struct.Lexer, ptr %130, i32 0, i32 3
  %132 = load ptr, ptr %131, align 8
  %133 = load i8, ptr %132, align 1
  %134 = call zeroext i1 @char_is_digit(i8 noundef signext %133)
  br i1 %134, label %135, label %159

135:                                              ; preds = %129
  %136 = load ptr, ptr %7, align 8
  store ptr %136, ptr %5, align 8
  %137 = load ptr, ptr %5, align 8
  %138 = getelementptr inbounds %struct.Lexer, ptr %137, i32 0, i32 3
  %139 = load ptr, ptr %138, align 8
  %140 = load i8, ptr %139, align 1
  %141 = sext i8 %140 to i32
  %142 = icmp eq i32 %141, 10
  br i1 %142, label %143, label %154

143:                                              ; preds = %135
  %144 = load ptr, ptr %5, align 8
  %145 = getelementptr inbounds %struct.Lexer, ptr %144, i32 0, i32 3
  %146 = load ptr, ptr %145, align 8
  %147 = getelementptr inbounds i8, ptr %146, i64 1
  %148 = load ptr, ptr %5, align 8
  %149 = getelementptr inbounds %struct.Lexer, ptr %148, i32 0, i32 6
  store ptr %147, ptr %149, align 8
  %150 = load ptr, ptr %5, align 8
  %151 = getelementptr inbounds %struct.Lexer, ptr %150, i32 0, i32 4
  %152 = load i32, ptr %151, align 8
  %153 = add i32 %152, 1
  store i32 %153, ptr %151, align 8
  br label %154

154:                                              ; preds = %143, %135
  %155 = load ptr, ptr %5, align 8
  %156 = getelementptr inbounds %struct.Lexer, ptr %155, i32 0, i32 3
  %157 = load ptr, ptr %156, align 8
  %158 = getelementptr inbounds i8, ptr %157, i32 1
  store ptr %158, ptr %156, align 8
  br label %129, !llvm.loop !31

159:                                              ; preds = %129
  store i1 true, ptr %6, align 1
  br label %160

160:                                              ; preds = %159, %123, %109, %101
  %161 = load i1, ptr %6, align 1
  ret i1 %161
}