; Function Attrs: nounwind uwtable
define internal fastcc noundef zeroext i1 @scan_exponent(ptr nocapture noundef %0) unnamed_addr #0 {
  %2 = getelementptr inbounds i8, ptr %0, i64 24
  %3 = load ptr, ptr %2, align 8
  %4 = load i8, ptr %3, align 1
  %5 = icmp eq i8 %4, 10
  br i1 %5, label %6, label %12

6:                                                ; preds = %1
  %7 = getelementptr inbounds i8, ptr %3, i64 1
  %8 = getelementptr inbounds i8, ptr %0, i64 40
  store ptr %7, ptr %8, align 8
  %9 = getelementptr inbounds i8, ptr %0, i64 32
  %10 = load i32, ptr %9, align 8
  %11 = add i32 %10, 1
  store i32 %11, ptr %9, align 8
  br label %12

12:                                               ; preds = %6, %1
  %13 = getelementptr inbounds i8, ptr %3, i64 1
  store ptr %13, ptr %2, align 8
  %14 = load i8, ptr %13, align 1
  %15 = icmp eq i8 %14, 10
  %16 = getelementptr inbounds i8, ptr %3, i64 2
  br i1 %15, label %.thread50, label %21

.thread50:                                        ; preds = %12
  %17 = getelementptr inbounds i8, ptr %0, i64 40
  store ptr %16, ptr %17, align 8
  %18 = getelementptr inbounds i8, ptr %0, i64 32
  %19 = load i32, ptr %18, align 8
  %20 = add i32 %19, 1
  store i32 %20, ptr %18, align 8
  store ptr %16, ptr %2, align 8
  br label %49

21:                                               ; preds = %12
  store ptr %16, ptr %2, align 8
  switch i8 %14, label %33 [
    i8 45, label %22
    i8 43, label %22
  ]

22:                                               ; preds = %21, %21
  %23 = load i8, ptr %16, align 1
  %24 = icmp eq i8 %23, 10
  br i1 %24, label %25, label %31

25:                                               ; preds = %22
  %26 = getelementptr inbounds i8, ptr %3, i64 3
  %27 = getelementptr inbounds i8, ptr %0, i64 40
  store ptr %26, ptr %27, align 8
  %28 = getelementptr inbounds i8, ptr %0, i64 32
  %29 = load i32, ptr %28, align 8
  %30 = add i32 %29, 1
  store i32 %30, ptr %28, align 8
  br label %31

31:                                               ; preds = %25, %22
  %32 = getelementptr inbounds i8, ptr %3, i64 3
  store ptr %32, ptr %2, align 8
  br label %33

33:                                               ; preds = %21, %31
  %.promoted = phi ptr [ %32, %31 ], [ %16, %21 ]
  %.0 = phi i8 [ %23, %31 ], [ %14, %21 ]
  %34 = add i8 %.0, -48
  %35 = icmp ult i8 %34, 10
  br i1 %35, label %.preheader, label %39

.preheader:                                       ; preds = %33
  %36 = load i8, ptr %.promoted, align 1
  %37 = add i8 %36, -48
  %38 = icmp ult i8 %37, 10
  br i1 %38, label %.lr.ph, label %.loopexit

39:                                               ; preds = %33
  %40 = sext i8 %.0 to i32
  switch i8 %.0, label %50 [
    i8 0, label %41
    i8 10, label %49
  ]

41:                                               ; preds = %39
  %42 = getelementptr inbounds i8, ptr %.promoted, i64 -1
  store ptr %42, ptr %2, align 8
  %43 = load i8, ptr %42, align 1
  %44 = icmp eq i8 %43, 10
  br i1 %44, label %45, label %backtrack.exit

45:                                               ; preds = %41
  %46 = getelementptr inbounds i8, ptr %0, i64 32
  %47 = load i32, ptr %46, align 8
  %48 = add i32 %47, -1
  store i32 %48, ptr %46, align 8
  br label %backtrack.exit

backtrack.exit:                                   ; preds = %41, %45
  tail call void (ptr, ptr, ...) @add_error_token_at_current(ptr noundef nonnull %0, ptr noundef nonnull @.str.108)
  br label %.loopexit

49:                                               ; preds = %.thread50, %39
  tail call void (ptr, ptr, ...) @add_error_token(ptr noundef nonnull %0, ptr noundef nonnull @.str.109)
  br label %.loopexit

50:                                               ; preds = %39
  %51 = icmp slt i8 %.0, 31
  br i1 %51, label %52, label %53

52:                                               ; preds = %50
  tail call void (ptr, ptr, ...) @add_error_token(ptr noundef nonnull %0, ptr noundef nonnull @.str.110)
  br label %53

53:                                               ; preds = %50, %52
  tail call void (ptr, ptr, ...) @add_error_token(ptr noundef nonnull %0, ptr noundef nonnull @.str.111, i32 noundef %40)
  br label %.loopexit

.lr.ph:                                           ; preds = %.preheader, %.lr.ph
  %54 = phi ptr [ %55, %.lr.ph ], [ %.promoted, %.preheader ]
  %55 = getelementptr inbounds i8, ptr %54, i64 1
  store ptr %55, ptr %2, align 8
  %56 = load i8, ptr %55, align 1
  %57 = add i8 %56, -48
  %58 = icmp ult i8 %57, 10
  br i1 %58, label %.lr.ph, label %.loopexit, !llvm.loop !37

.loopexit:                                        ; preds = %.lr.ph, %.preheader, %53, %49, %backtrack.exit
  %59 = phi i1 [ false, %53 ], [ false, %49 ], [ false, %backtrack.exit ], [ true, %.preheader ], [ true, %.lr.ph ]
  ret i1 %59
}